target datalayout = "e-m:e-p270:32:32-p271:32:32-p272:64:64-i64:64-i128:128-f80:128-n8:16:32:64-S128"
target triple = "x86_64-pc-linux-gnu"

%struct.Gia_Man_t_ = type { ptr, ptr, i32, i32, i32, i32, ptr, ptr, i32, i32, i32, ptr, ptr, %struct.Vec_Int_t_, %struct.Vec_Int_t_, i32, i32, i32, %struct.Vec_Int_t_, ptr, ptr, ptr, i32, i32, i32, i32, ptr, ptr, ptr, ptr, ptr, i32, i32, ptr, i32, ptr, ptr, ptr, ptr, ptr, ptr, ptr, ptr, ptr, ptr, ptr, ptr, ptr, ptr, ptr, ptr, ptr, ptr, %struct.Vec_Int_t_, %struct.Vec_Int_t_, ptr, ptr, ptr, ptr, ptr, ptr, ptr, ptr, ptr, ptr, ptr, ptr, ptr, ptr, ptr, ptr, ptr, ptr, ptr, ptr, ptr, i32, float, float, ptr, ptr, i32, ptr, ptr, ptr, ptr, ptr, ptr, ptr, ptr, ptr, ptr, ptr, ptr, ptr, ptr, ptr, i64, i64, ptr, ptr, i32, i32, i32, i32, i32, i32, i32, i32, i32, i32, i32, i32, ptr, ptr, ptr, ptr, ptr, ptr, ptr, ptr, i32, i32, i32, ptr, i32, i32, ptr, ptr, ptr, ptr, ptr, ptr, i32, i32, ptr, %struct.Vec_Int_t_, %struct.Vec_Int_t_, %struct.Vec_Int_t_, ptr, ptr, ptr, i32, i32, i32, i32, ptr, ptr, ptr, ptr, ptr }
%struct.Vec_Int_t_ = type { i32, i32, ptr }
%struct.Gia_Obj_t_ = type <{ i64, i32 }>
%struct.Gia_Rpr_t_ = type { i32 }

; Function Attrs: inlinehint nounwind uwtable
define internal ptr @Gia_ManObj(ptr noundef %0, i32 noundef %1) #1 {
  %3 = alloca ptr, align 8
  %4 = alloca i32, align 4
  store ptr %0, ptr %3, align 8, !tbaa !3
  store i32 %1, ptr %4, align 4, !tbaa !33
  %5 = load ptr, ptr %3, align 8, !tbaa !3
  %6 = getelementptr inbounds nuw %struct.Gia_Man_t_, ptr %5, i32 0, i32 6
  %7 = load ptr, ptr %6, align 8, !tbaa !43
  %8 = load i32, ptr %4, align 4, !tbaa !33
  %9 = sext i32 %8 to i64
  %10 = getelementptr inbounds %struct.Gia_Obj_t_, ptr %7, i64 %9
  ret ptr %10
}

; Function Attrs: inlinehint nounwind uwtable
define internal ptr @Gia_ObjReprObj(ptr noundef %0, i32 noundef %1) #1 {
  %3 = alloca ptr, align 8
  %4 = alloca i32, align 4
  store ptr %0, ptr %3, align 8, !tbaa !3
  store i32 %1, ptr %4, align 4, !tbaa !33
  %5 = load ptr, ptr %3, align 8, !tbaa !3
  %6 = getelementptr inbounds nuw %struct.Gia_Man_t_, ptr %5, i32 0, i32 27
  %7 = load ptr, ptr %6, align 8, !tbaa !53
  %8 = load i32, ptr %4, align 4, !tbaa !33
  %9 = sext i32 %8 to i64
  %10 = getelementptr inbounds %struct.Gia_Rpr_t_, ptr %7, i64 %9
  %11 = load i32, ptr %10, align 4
  %12 = and i32 %11, 268435455
  %13 = icmp eq i32 %12, 268435455
  br i1 %13, label %14, label %15

14:                                               ; preds = %2
  br label %26

15:                                               ; preds = %2
  %16 = load ptr, ptr %3, align 8, !tbaa !3
  %17 = load ptr, ptr %3, align 8, !tbaa !3
  %18 = getelementptr inbounds nuw %struct.Gia_Man_t_, ptr %17, i32 0, i32 27
  %19 = load ptr, ptr %18, align 8, !tbaa !53
  %20 = load i32, ptr %4, align 4, !tbaa !33
  %21 = sext i32 %20 to i64
  %22 = getelementptr inbounds %struct.Gia_Rpr_t_, ptr %19, i64 %21
  %23 = load i32, ptr %22, align 4
  %24 = and i32 %23, 268435455
  %25 = call ptr @Gia_ManObj(ptr noundef %16, i32 noundef %24)
  br label %26

26:                                               ; preds = %15, %14
  %27 = phi ptr [ null, %14 ], [ %25, %15 ]
  ret ptr %27
}

; Function Attrs: inlinehint nounwind uwtable
define internal i32 @Gia_ObjId(ptr noundef %0, ptr noundef %1) #1 {
  %3 = alloca ptr, align 8
  %4 = alloca ptr, align 8
  store ptr %0, ptr %3, align 8, !tbaa !3
  store ptr %1, ptr %4, align 8, !tbaa !38
  %5 = load ptr, ptr %4, align 8, !tbaa !38
  %6 = load ptr, ptr %3, align 8, !tbaa !3
  %7 = getelementptr inbounds nuw %struct.Gia_Man_t_, ptr %6, i32 0, i32 6
  %8 = load ptr, ptr %7, align 8, !tbaa !43
  %9 = ptrtoint ptr %5 to i64
  %10 = ptrtoint ptr %8 to i64
  %11 = sub i64 %9, %10
  %12 = sdiv exact i64 %11, 12
  %13 = trunc i64 %12 to i32
  ret i32 %13
}

; Function Attrs: inlinehint nounwind uwtable
define internal ptr @Gia_ObjFanin1(ptr noundef %0) #1 {
  %2 = alloca ptr, align 8
  store ptr %0, ptr %2, align 8, !tbaa !38
  %3 = load ptr, ptr %2, align 8, !tbaa !38
  %4 = load ptr, ptr %2, align 8, !tbaa !38
  %5 = load i64, ptr %4, align 4
  %6 = lshr i64 %5, 32
  %7 = and i64 %6, 536870911
  %8 = trunc i64 %7 to i32
  %9 = sext i32 %8 to i64
  %10 = sub i64 0, %9
  %11 = getelementptr inbounds %struct.Gia_Obj_t_, ptr %3, i64 %10
  ret ptr %11
}

; Function Attrs: inlinehint nounwind uwtable
define internal ptr @Gia_ObjFanin0(ptr noundef %0) #1 {
  %2 = alloca ptr, align 8
  store ptr %0, ptr %2, align 8, !tbaa !38
  %3 = load ptr, ptr %2, align 8, !tbaa !38
  %4 = load ptr, ptr %2, align 8, !tbaa !38
  %5 = load i64, ptr %4, align 4
  %6 = and i64 %5, 536870911
  %7 = trunc i64 %6 to i32
  %8 = sext i32 %7 to i64
  %9 = sub i64 0, %8
  %10 = getelementptr inbounds %struct.Gia_Obj_t_, ptr %3, i64 %9
  ret ptr %10
}

; Function Attrs: nounwind uwtable
define i32 @Gia_ManCheckTopoOrder_rec(ptr noundef %0, ptr noundef %1) #0 {
  %3 = alloca i32, align 4
  %4 = alloca ptr, align 8
  %5 = alloca ptr, align 8
  %6 = alloca ptr, align 8
  %7 = alloca i32, align 4
  store ptr %0, ptr %4, align 8, !tbaa !3
  store ptr %1, ptr %5, align 8, !tbaa !38
  call void @llvm.lifetime.start.p0(i64 8, ptr %6) #12
  %8 = load ptr, ptr %5, align 8, !tbaa !38
  %9 = getelementptr inbounds nuw %struct.Gia_Obj_t_, ptr %8, i32 0, i32 1
  %10 = load i32, ptr %9, align 4, !tbaa !39
  %11 = icmp eq i32 %10, 0
  br i1 %11, label %12, label %13

12:                                               ; preds = %2
  store i32 1, ptr %3, align 4
  store i32 1, ptr %7, align 4
  br label %53

13:                                               ; preds = %2
  %14 = load ptr, ptr %5, align 8, !tbaa !38
  %15 = getelementptr inbounds nuw %struct.Gia_Obj_t_, ptr %14, i32 0, i32 1
  store i32 0, ptr %15, align 4, !tbaa !39
  %16 = load ptr, ptr %4, align 8, !tbaa !3
  %17 = load ptr, ptr %5, align 8, !tbaa !38
  %18 = call ptr @Gia_ObjFanin0(ptr noundef %17)
  %19 = call i32 @Gia_ManCheckTopoOrder_rec(ptr noundef %16, ptr noundef %18)
  %20 = icmp ne i32 %19, 0
  br i1 %20, label %22, label %21

21:                                               ; preds = %13
  store i32 0, ptr %3, align 4
  store i32 1, ptr %7, align 4
  br label %53

22:                                               ; preds = %13
  %23 = load ptr, ptr %4, align 8, !tbaa !3
  %24 = load ptr, ptr %5, align 8, !tbaa !38
  %25 = call ptr @Gia_ObjFanin1(ptr noundef %24)
  %26 = call i32 @Gia_ManCheckTopoOrder_rec(ptr noundef %23, ptr noundef %25)
  %27 = icmp ne i32 %26, 0
  br i1 %27, label %29, label %28

28:                                               ; preds = %22
  store i32 0, ptr %3, align 4
  store i32 1, ptr %7, align 4
  br label %53

29:                                               ; preds = %22
  %30 = load ptr, ptr %4, align 8, !tbaa !3
  %31 = getelementptr inbounds nuw %struct.Gia_Man_t_, ptr %30, i32 0, i32 27
  %32 = load ptr, ptr %31, align 8, !tbaa !53
  %33 = icmp ne ptr %32, null
  br i1 %33, label %34, label %40

34:                                               ; preds = %29
  %35 = load ptr, ptr %4, align 8, !tbaa !3
  %36 = load ptr, ptr %4, align 8, !tbaa !3
  %37 = load ptr, ptr %5, align 8, !tbaa !38
  %38 = call i32 @Gia_ObjId(ptr noundef %36, ptr noundef %37)
  %39 = call ptr @Gia_ObjReprObj(ptr noundef %35, i32 noundef %38)
  br label %41

40:                                               ; preds = %29
  br label %41

41:                                               ; preds = %40, %34
  %42 = phi ptr [ %39, %34 ], [ null, %40 ]
  store ptr %42, ptr %6, align 8, !tbaa !38
  %43 = load ptr, ptr %6, align 8, !tbaa !38
  %44 = icmp eq ptr %43, null
  br i1 %44, label %50, label %45

45:                                               ; preds = %41
  %46 = load ptr, ptr %6, align 8, !tbaa !38
  %47 = getelementptr inbounds nuw %struct.Gia_Obj_t_, ptr %46, i32 0, i32 1
  %48 = load i32, ptr %47, align 4, !tbaa !39
  %49 = icmp eq i32 %48, 0
  br label %50

50:                                               ; preds = %45, %41
  %51 = phi i1 [ true, %41 ], [ %49, %45 ]
  %52 = zext i1 %51 to i32
  store i32 %52, ptr %3, align 4
  store i32 1, ptr %7, align 4
  br label %53

53:                                               ; preds = %50, %28, %21, %12
  call void @llvm.lifetime.end.p0(i64 8, ptr %6) #12
  %54 = load i32, ptr %3, align 4
  ret i32 %54
}