; Function Attrs: nofree nosync nounwind memory(read, argmem: readwrite, inaccessiblemem: none) uwtable
define range(i32 0, 2) i32 @Gia_ManCheckTopoOrder_rec(ptr noundef %0, ptr noundef %1) local_unnamed_addr #10 {
  %3 = getelementptr inbounds nuw i8, ptr %1, i64 8
  %4 = load i32, ptr %3, align 4, !tbaa !37
  %5 = icmp eq i32 %4, 0
  br i1 %5, label %Gia_ObjReprObj.exit.thread, label %6

6:                                                ; preds = %2
  store i32 0, ptr %3, align 4, !tbaa !37
  %7 = load i64, ptr %1, align 4
  %8 = and i64 %7, 536870911
  %9 = sub nsw i64 0, %8
  %10 = getelementptr inbounds %struct.Gia_Obj_t_, ptr %1, i64 %9
  %11 = tail call i32 @Gia_ManCheckTopoOrder_rec(ptr noundef %0, ptr noundef nonnull %10)
  %.not = icmp eq i32 %11, 0
  br i1 %.not, label %Gia_ObjReprObj.exit.thread, label %12

12:                                               ; preds = %6
  %13 = load i64, ptr %1, align 4
  %14 = lshr i64 %13, 32
  %15 = and i64 %14, 536870911
  %16 = sub nsw i64 0, %15
  %17 = getelementptr inbounds %struct.Gia_Obj_t_, ptr %1, i64 %16
  %18 = tail call i32 @Gia_ManCheckTopoOrder_rec(ptr noundef %0, ptr noundef nonnull %17)
  %.not13 = icmp eq i32 %18, 0
  br i1 %.not13, label %Gia_ObjReprObj.exit.thread, label %19

19:                                               ; preds = %12
  %20 = getelementptr inbounds nuw i8, ptr %0, i64 192
  %21 = load ptr, ptr %20, align 8, !tbaa !49
  %.not14 = icmp eq ptr %21, null
  br i1 %.not14, label %Gia_ObjReprObj.exit.thread, label %22

22:                                               ; preds = %19
  %23 = getelementptr i8, ptr %0, i64 32
  %.val = load ptr, ptr %23, align 8, !tbaa !36
  %24 = ptrtoint ptr %1 to i64
  %25 = ptrtoint ptr %.val to i64
  %26 = sub i64 %24, %25
  %27 = sdiv exact i64 %26, 12
  %sext = shl i64 %27, 32
  %28 = ashr exact i64 %sext, 30
  %29 = getelementptr inbounds i8, ptr %21, i64 %28
  %30 = load i32, ptr %29, align 4
  %31 = and i32 %30, 268435455
  %32 = icmp eq i32 %31, 268435455
  %33 = icmp eq ptr %.val, null
  %or.cond = or i1 %33, %32
  br i1 %or.cond, label %Gia_ObjReprObj.exit.thread, label %34

34:                                               ; preds = %22
  %35 = zext nneg i32 %31 to i64
  %36 = getelementptr inbounds nuw %struct.Gia_Obj_t_, ptr %.val, i64 %35, i32 1
  %37 = load i32, ptr %36, align 4, !tbaa !37
  %38 = icmp eq i32 %37, 0
  %39 = zext i1 %38 to i32
  br label %Gia_ObjReprObj.exit.thread

Gia_ObjReprObj.exit.thread:                       ; preds = %22, %19, %34, %12, %6, %2
  %.0 = phi i32 [ 1, %2 ], [ 0, %6 ], [ 0, %12 ], [ %39, %34 ], [ 1, %19 ], [ 1, %22 ]
  ret i32 %.0
}